; Function Attrs: mustprogress nounwind uwtable
define hidden void @_ZN3sat8elim_eqsD2Ev(ptr nocapture noundef nonnull readonly align 8 dereferenceable(24) %this) unnamed_addr #4 align 2 personality ptr @__gxx_personality_v0 {
entry:
  %m_to_delete = getelementptr inbounds i8, ptr %this, i64 16
  %0 = load ptr, ptr %m_to_delete, align 8
  %cmp.i = icmp eq ptr %0, null
  br i1 %cmp.i, label %invoke.cont, label %if.end.i

if.end.i:                                         ; preds = %entry
  %1 = load ptr, ptr %0, align 8
  %tobool.not.i.i = icmp eq ptr %1, null
  br i1 %tobool.not.i.i, label %_ZN3sat10tmp_clauseD2Ev.exit.i, label %if.end.i.i.i

if.end.i.i.i:                                     ; preds = %if.end.i
  invoke void @_ZN6memory10deallocateEPv(ptr noundef nonnull %1)
          to label %_ZN3sat10tmp_clauseD2Ev.exit.i unwind label %terminate.lpad.i.i

terminate.lpad.i.i:                               ; preds = %if.end.i.i.i
  %2 = landingpad { ptr, i32 }
          catch ptr null
  %3 = extractvalue { ptr, i32 } %2, 0
  tail call void @__clang_call_terminate(ptr %3) #14
  unreachable

_ZN3sat10tmp_clauseD2Ev.exit.i:                   ; preds = %if.end.i.i.i, %if.end.i
  invoke void @_ZN6memory10deallocateEPv(ptr noundef nonnull %0)
          to label %invoke.cont unwind label %terminate.lpad

invoke.cont:                                      ; preds = %entry, %_ZN3sat10tmp_clauseD2Ev.exit.i
  %4 = load ptr, ptr %this, align 8
  %tobool.not.i.i.i = icmp eq ptr %4, null
  br i1 %tobool.not.i.i.i, label %_ZN7svectorIN3sat8elim_eqs3binEjED2Ev.exit, label %if.then.i.i.i

if.then.i.i.i:                                    ; preds = %invoke.cont
  %add.ptr.i.i.i.i = getelementptr inbounds i8, ptr %4, i64 -8
  invoke void @_ZN6memory10deallocateEPv(ptr noundef nonnull %add.ptr.i.i.i.i)
          to label %_ZN7svectorIN3sat8elim_eqs3binEjED2Ev.exit unwind label %terminate.lpad.i.i1

terminate.lpad.i.i1:                              ; preds = %if.then.i.i.i
  %5 = landingpad { ptr, i32 }
          catch ptr null
  %6 = extractvalue { ptr, i32 } %5, 0
  tail call void @__clang_call_terminate(ptr %6) #14
  unreachable

_ZN7svectorIN3sat8elim_eqs3binEjED2Ev.exit:       ; preds = %invoke.cont, %if.then.i.i.i
  ret void

terminate.lpad:                                   ; preds = %_ZN3sat10tmp_clauseD2Ev.exit.i
  %7 = landingpad { ptr, i32 }
          catch ptr null
  %8 = extractvalue { ptr, i32 } %7, 0
  tail call void @__clang_call_terminate(ptr %8) #14
  unreachable
}